; Function Attrs: mustprogress uwtable
define void @_ZN10ColorUtils14themeLinkBrushEv(ptr dead_on_unwind noalias writable sret(%class.QBrush) align 8 %0) local_unnamed_addr #0 align 2 personality ptr @__gxx_personality_v0 {
  %2 = alloca %class.QPalette, align 8
  call void @_ZN15QGuiApplication7paletteEv(ptr dead_on_unwind nonnull writable sret(%class.QPalette) align 8 %2)
  %3 = invoke noundef nonnull align 8 dereferenceable(8) ptr @_ZNK8QPalette5brushENS_10ColorGroupENS_9ColorRoleE(ptr noundef nonnull align 8 dereferenceable(12) %2, i32 noundef 4, i32 noundef 14)
          to label %_ZNK8QPalette4linkEv.exit unwind label %5

_ZNK8QPalette4linkEv.exit:                        ; preds = %1
  invoke void @_ZN6QBrushC1ERKS_(ptr noundef nonnull align 8 dereferenceable(8) %0, ptr noundef nonnull align 8 dereferenceable(8) %3)
          to label %4 unwind label %5

4:                                                ; preds = %_ZNK8QPalette4linkEv.exit
  call void @_ZN8QPaletteD1Ev(ptr noundef nonnull align 8 dereferenceable(12) %2) #15
  ret void

5:                                                ; preds = %1, %_ZNK8QPalette4linkEv.exit
  %6 = landingpad { ptr, i32 }
          cleanup
  call void @_ZN8QPaletteD1Ev(ptr noundef nonnull align 8 dereferenceable(12) %2) #15
  resume { ptr, i32 } %6
}